target datalayout = "e-m:e-p270:32:32-p271:32:32-p272:64:64-i64:64-i128:128-f80:128-n8:16:32:64-S128"
target triple = "x86_64-pc-linux-gnu"

@.str = private unnamed_addr constant [3 x i8] c"rb\00", align 1
@.str.1 = private unnamed_addr constant [3 x i8] c"%d\00", align 1
@.str.2 = private unnamed_addr constant [5 x i8] c"    \00", align 1
@.str.3 = private unnamed_addr constant [4 x i8] c"%d,\00", align 1
@.str.4 = private unnamed_addr constant [2 x i8] c"\0A\00", align 1

; Function Attrs: nounwind uwtable
define void @Iso_ReadPrimes(ptr noundef %0) #0 {
  %2 = alloca ptr, align 8
  %3 = alloca ptr, align 8
  %4 = alloca [10000 x i32], align 16
  %5 = alloca i32, align 4
  %6 = alloca i32, align 4
  %7 = alloca i32, align 4
  %8 = alloca i32, align 4
  store ptr %0, ptr %2, align 8, !tbaa !3
  call void @llvm.lifetime.start.p0(i64 8, ptr %3) #11
  call void @llvm.lifetime.start.p0(i64 40000, ptr %4) #11
  call void @llvm.lifetime.start.p0(i64 4, ptr %5) #11
  call void @llvm.lifetime.start.p0(i64 4, ptr %6) #11
  call void @llvm.lifetime.start.p0(i64 4, ptr %7) #11
  call void @llvm.lifetime.start.p0(i64 4, ptr %8) #11
  store i32 0, ptr %8, align 4, !tbaa !8
  %9 = load ptr, ptr %2, align 8, !tbaa !3
  %10 = call noalias ptr @fopen(ptr noundef %9, ptr noundef @.str)
  store ptr %10, ptr %3, align 8, !tbaa !10
  br label %11

11:                                               ; preds = %20, %1
  %12 = load ptr, ptr %3, align 8, !tbaa !10
  %13 = getelementptr inbounds [10000 x i32], ptr %4, i64 0, i64 0
  %14 = load i32, ptr %8, align 4, !tbaa !8
  %15 = add nsw i32 %14, 1
  store i32 %15, ptr %8, align 4, !tbaa !8
  %16 = sext i32 %14 to i64
  %17 = getelementptr inbounds i32, ptr %13, i64 %16
  %18 = call i32 (ptr, ptr, ...) @__isoc99_fscanf(ptr noundef %12, ptr noundef @.str.1, ptr noundef %17)
  %19 = icmp eq i32 %18, 1
  br i1 %19, label %20, label %21

20:                                               ; preds = %11
  br label %11, !llvm.loop !12

21:                                               ; preds = %11
  %22 = load ptr, ptr %3, align 8, !tbaa !10
  %23 = call i32 @fclose(ptr noundef %22)
  call void @srand(i32 noundef 111) #11
  store i32 0, ptr %5, align 4, !tbaa !8
  br label %24

24:                                               ; preds = %47, %21
  %25 = load i32, ptr %5, align 4, !tbaa !8
  %26 = load i32, ptr %8, align 4, !tbaa !8
  %27 = icmp slt i32 %25, %26
  br i1 %27, label %28, label %50

28:                                               ; preds = %24
  %29 = call i32 @rand() #11
  %30 = load i32, ptr %8, align 4, !tbaa !8
  %31 = srem i32 %29, %30
  store i32 %31, ptr %6, align 4, !tbaa !8
  %32 = load i32, ptr %5, align 4, !tbaa !8
  %33 = sext i32 %32 to i64
  %34 = getelementptr inbounds [10000 x i32], ptr %4, i64 0, i64 %33
  %35 = load i32, ptr %34, align 4, !tbaa !8
  store i32 %35, ptr %7, align 4, !tbaa !8
  %36 = load i32, ptr %6, align 4, !tbaa !8
  %37 = sext i32 %36 to i64
  %38 = getelementptr inbounds [10000 x i32], ptr %4, i64 0, i64 %37
  %39 = load i32, ptr %38, align 4, !tbaa !8
  %40 = load i32, ptr %5, align 4, !tbaa !8
  %41 = sext i32 %40 to i64
  %42 = getelementptr inbounds [10000 x i32], ptr %4, i64 0, i64 %41
  store i32 %39, ptr %42, align 4, !tbaa !8
  %43 = load i32, ptr %7, align 4, !tbaa !8
  %44 = load i32, ptr %6, align 4, !tbaa !8
  %45 = sext i32 %44 to i64
  %46 = getelementptr inbounds [10000 x i32], ptr %4, i64 0, i64 %45
  store i32 %43, ptr %46, align 4, !tbaa !8
  br label %47

47:                                               ; preds = %28
  %48 = load i32, ptr %5, align 4, !tbaa !8
  %49 = add nsw i32 %48, 1
  store i32 %49, ptr %5, align 4, !tbaa !8
  br label %24, !llvm.loop !14

50:                                               ; preds = %24
  store i32 0, ptr %5, align 4, !tbaa !8
  br label %51

51:                                               ; preds = %73, %50
  %52 = load i32, ptr %5, align 4, !tbaa !8
  %53 = icmp slt i32 %52, 64
  br i1 %53, label %54, label %76

54:                                               ; preds = %51
  %55 = call i32 (ptr, ...) @printf(ptr noundef @.str.2)
  store i32 0, ptr %6, align 4, !tbaa !8
  br label %56

56:                                               ; preds = %68, %54
  %57 = load i32, ptr %6, align 4, !tbaa !8
  %58 = icmp slt i32 %57, 16
  br i1 %58, label %59, label %71

59:                                               ; preds = %56
  %60 = load i32, ptr %5, align 4, !tbaa !8
  %61 = mul nsw i32 %60, 16
  %62 = load i32, ptr %6, align 4, !tbaa !8
  %63 = add nsw i32 %61, %62
  %64 = sext i32 %63 to i64
  %65 = getelementptr inbounds [10000 x i32], ptr %4, i64 0, i64 %64
  %66 = load i32, ptr %65, align 4, !tbaa !8
  %67 = call i32 (ptr, ...) @printf(ptr noundef @.str.3, i32 noundef %66)
  br label %68

68:                                               ; preds = %59
  %69 = load i32, ptr %6, align 4, !tbaa !8
  %70 = add nsw i32 %69, 1
  store i32 %70, ptr %6, align 4, !tbaa !8
  br label %56, !llvm.loop !15

71:                                               ; preds = %56
  %72 = call i32 (ptr, ...) @printf(ptr noundef @.str.4)
  br label %73

73:                                               ; preds = %71
  %74 = load i32, ptr %5, align 4, !tbaa !8
  %75 = add nsw i32 %74, 1
  store i32 %75, ptr %5, align 4, !tbaa !8
  br label %51, !llvm.loop !16

76:                                               ; preds = %51
  call void @llvm.lifetime.end.p0(i64 4, ptr %8) #11
  call void @llvm.lifetime.end.p0(i64 4, ptr %7) #11
  call void @llvm.lifetime.end.p0(i64 4, ptr %6) #11
  call void @llvm.lifetime.end.p0(i64 4, ptr %5) #11
  call void @llvm.lifetime.end.p0(i64 40000, ptr %4) #11
  call void @llvm.lifetime.end.p0(i64 8, ptr %3) #11
  ret void
}