; Function Attrs: nounwind uwtable
define void @Iso_ReadPrimes(ptr noundef readonly captures(none) %0) local_unnamed_addr #0 {
  %2 = alloca [10000 x i32], align 16
  call void @llvm.lifetime.start.p0(i64 40000, ptr nonnull %2) #23
  %3 = tail call noalias ptr @fopen(ptr noundef %0, ptr noundef nonnull @.str)
  br label %4

4:                                                ; preds = %4, %1
  %indvars.iv28 = phi i32 [ %indvars.iv.next29, %4 ], [ 1, %1 ]
  %indvars.iv = phi i64 [ %indvars.iv.next, %4 ], [ 0, %1 ]
  %indvars.iv.next = add nuw nsw i64 %indvars.iv, 1
  %5 = getelementptr inbounds nuw i32, ptr %2, i64 %indvars.iv
  %6 = call i32 (ptr, ptr, ...) @__isoc99_fscanf(ptr noundef %3, ptr noundef nonnull @.str.1, ptr noundef nonnull %5) #23
  %7 = icmp eq i32 %6, 1
  %indvars.iv.next29 = add nuw i32 %indvars.iv28, 1
  br i1 %7, label %4, label %8, !llvm.loop !3

8:                                                ; preds = %4
  %9 = trunc nuw i64 %indvars.iv.next to i32
  %10 = call i32 @fclose(ptr noundef %3)
  call void @srand(i32 noundef 111) #23
  %wide.trip.count = zext i32 %indvars.iv28 to i64
  br label %11

11:                                               ; preds = %8, %11
  %indvars.iv25 = phi i64 [ 0, %8 ], [ %indvars.iv.next26, %11 ]
  %12 = call i32 @rand() #23
  %13 = srem i32 %12, %9
  %14 = getelementptr inbounds nuw [10000 x i32], ptr %2, i64 0, i64 %indvars.iv25
  %15 = load i32, ptr %14, align 4, !tbaa !5
  %16 = sext i32 %13 to i64
  %17 = getelementptr inbounds [10000 x i32], ptr %2, i64 0, i64 %16
  %18 = load i32, ptr %17, align 4, !tbaa !5
  store i32 %18, ptr %14, align 4, !tbaa !5
  store i32 %15, ptr %17, align 4, !tbaa !5
  %indvars.iv.next26 = add nuw nsw i64 %indvars.iv25, 1
  %exitcond.not = icmp eq i64 %indvars.iv.next26, %wide.trip.count
  br i1 %exitcond.not, label %.preheader, label %11, !llvm.loop !9

.preheader:                                       ; preds = %11, %26
  %indvars.iv34 = phi i64 [ %indvars.iv.next35, %26 ], [ 0, %11 ]
  %19 = call i32 (ptr, ...) @printf(ptr noundef nonnull dereferenceable(1) @.str.2)
  %20 = shl nuw nsw i64 %indvars.iv34, 4
  br label %21

21:                                               ; preds = %.preheader, %21
  %indvars.iv30 = phi i64 [ 0, %.preheader ], [ %indvars.iv.next31, %21 ]
  %22 = add nuw nsw i64 %indvars.iv30, %20
  %23 = getelementptr inbounds nuw [10000 x i32], ptr %2, i64 0, i64 %22
  %24 = load i32, ptr %23, align 4, !tbaa !5
  %25 = call i32 (ptr, ...) @printf(ptr noundef nonnull dereferenceable(1) @.str.3, i32 noundef %24)
  %indvars.iv.next31 = add nuw nsw i64 %indvars.iv30, 1
  %exitcond33.not = icmp eq i64 %indvars.iv.next31, 16
  br i1 %exitcond33.not, label %26, label %21, !llvm.loop !10

26:                                               ; preds = %21
  %putchar = call i32 @putchar(i32 10)
  %indvars.iv.next35 = add nuw nsw i64 %indvars.iv34, 1
  %exitcond37.not = icmp eq i64 %indvars.iv.next35, 64
  br i1 %exitcond37.not, label %27, label %.preheader, !llvm.loop !11

27:                                               ; preds = %26
  call void @llvm.lifetime.end.p0(i64 40000, ptr nonnull %2) #23
  ret void
}